; Function Attrs: mustprogress nounwind uwtable
define hidden void @_ZN2cv11AvifDecoderD0Ev(ptr noundef nonnull align 8 dereferenceable(392) %0) unnamed_addr #5 align 2 personality ptr @__gxx_personality_v0 {
  %2 = getelementptr inbounds nuw i8, ptr %0, i64 376
  %3 = load ptr, ptr %2, align 8, !tbaa !54
  %.not.i = icmp eq ptr %3, null
  br i1 %.not.i, label %_ZN2cv11AvifDecoderD2Ev.exit, label %4

4:                                                ; preds = %1
  invoke void @avifDecoderDestroy(ptr noundef nonnull %3)
          to label %_ZN2cv11AvifDecoderD2Ev.exit unwind label %5

5:                                                ; preds = %4
  %6 = landingpad { ptr, i32 }
          catch ptr null
  %7 = extractvalue { ptr, i32 } %6, 0
  tail call void @__clang_call_terminate(ptr %7) #21
  unreachable

_ZN2cv11AvifDecoderD2Ev.exit:                     ; preds = %1, %4
  tail call void @_ZN2cv16BaseImageDecoderD2Ev(ptr noundef nonnull align 8 dereferenceable(392) %0) #20
  tail call void @_ZdlPv(ptr noundef nonnull %0) #22
  ret void
}